; ModuleID = '43/1434.c'
source_filename = "43/1434.c"
target datalayout = "e-m:e-p270:32:32-p271:32:32-p272:64:64-i64:64-f80:128-n8:16:32:64-S128"
target triple = "x86_64-pc-linux-gnu"

@.str = private unnamed_addr constant [3 x i8] c"%d\00", align 1
@.str.1 = private unnamed_addr constant [7 x i8] c"%d %d\0A\00", align 1

; Function Attrs: noinline nounwind uwtable
define dso_local void @main() #0 {
  %1 = alloca i32, align 4
  %2 = alloca i32, align 4
  %3 = alloca i32, align 4
  %4 = alloca i32, align 4
  %5 = alloca i32, align 4
  %6 = alloca i32, align 4
  %7 = call i32 (i8*, ...) @__isoc99_scanf(i8* getelementptr inbounds ([3 x i8], [3 x i8]* @.str, i64 0, i64 0), i32* %1)
  store i32 3, i32* %3, align 4
  br label %8

8:                                                ; preds = %66, %0
  %9 = load i32, i32* %3, align 4
  %10 = load i32, i32* %1, align 4
  %11 = sdiv i32 %10, 2
  %12 = icmp sle i32 %9, %11
  br i1 %12, label %13, label %69

13:                                               ; preds = %8
  %14 = load i32, i32* %3, align 4
  %15 = sitofp i32 %14 to double
  %16 = call double @sqrt(double %15) #3
  %17 = fptosi double %16 to i32
  store i32 %17, i32* %5, align 4
  store i32 0, i32* %6, align 4
  store i32 3, i32* %2, align 4
  br label %18

18:                                               ; preds = %29, %13
  %19 = load i32, i32* %2, align 4
  %20 = load i32, i32* %5, align 4
  %21 = icmp sle i32 %19, %20
  br i1 %21, label %22, label %32

22:                                               ; preds = %18
  store i32 0, i32* %6, align 4
  %23 = load i32, i32* %3, align 4
  %24 = load i32, i32* %2, align 4
  %25 = srem i32 %23, %24
  %26 = icmp eq i32 %25, 0
  br i1 %26, label %27, label %28

27:                                               ; preds = %22
  store i32 1, i32* %6, align 4
  br label %32

28:                                               ; preds = %22
  br label %29

29:                                               ; preds = %28
  %30 = load i32, i32* %2, align 4
  %31 = add nsw i32 %30, 2
  store i32 %31, i32* %2, align 4
  br label %18

32:                                               ; preds = %27, %18
  %33 = load i32, i32* %6, align 4
  %34 = icmp eq i32 %33, 0
  br i1 %34, label %35, label %65

35:                                               ; preds = %32
  %36 = load i32, i32* %1, align 4
  %37 = load i32, i32* %3, align 4
  %38 = sub nsw i32 %36, %37
  store i32 %38, i32* %4, align 4
  %39 = load i32, i32* %4, align 4
  %40 = sitofp i32 %39 to double
  %41 = call double @sqrt(double %40) #3
  %42 = fptosi double %41 to i32
  store i32 %42, i32* %5, align 4
  store i32 3, i32* %2, align 4
  br label %43

43:                                               ; preds = %54, %35
  %44 = load i32, i32* %2, align 4
  %45 = load i32, i32* %5, align 4
  %46 = icmp sle i32 %44, %45
  br i1 %46, label %47, label %57

47:                                               ; preds = %43
  store i32 0, i32* %6, align 4
  %48 = load i32, i32* %4, align 4
  %49 = load i32, i32* %2, align 4
  %50 = srem i32 %48, %49
  %51 = icmp eq i32 %50, 0
  br i1 %51, label %52, label %53

52:                                               ; preds = %47
  store i32 1, i32* %6, align 4
  br label %57

53:                                               ; preds = %47
  br label %54

54:                                               ; preds = %53
  %55 = load i32, i32* %2, align 4
  %56 = add nsw i32 %55, 2
  store i32 %56, i32* %2, align 4
  br label %43

57:                                               ; preds = %52, %43
  %58 = load i32, i32* %6, align 4
  %59 = icmp eq i32 %58, 0
  br i1 %59, label %60, label %64

60:                                               ; preds = %57
  %61 = load i32, i32* %3, align 4
  %62 = load i32, i32* %4, align 4
  %63 = call i32 (i8*, ...) @printf(i8* getelementptr inbounds ([7 x i8], [7 x i8]* @.str.1, i64 0, i64 0), i32 %61, i32 %62)
  br label %64

64:                                               ; preds = %60, %57
  br label %65

65:                                               ; preds = %64, %32
  br label %66

66:                                               ; preds = %65
  %67 = load i32, i32* %3, align 4
  %68 = add nsw i32 %67, 2
  store i32 %68, i32* %3, align 4
  br label %8

69:                                               ; preds = %8
  ret void
}

declare dso_local i32 @__isoc99_scanf(i8*, ...) #1

; Function Attrs: nounwind
declare dso_local double @sqrt(double) #2

declare dso_local i32 @printf(i8*, ...) #1


!llvm.module.flags = !{!0}
!llvm.ident = !{!1}

!0 = !{i32 1, !"wchar_size", i32 4}
!1 = !{!"clang version 10.0.0-4ubuntu1 "}
