; ModuleID = 'source-C-CXX/42/1434.c'
source_filename = "source-C-CXX/42/1434.c"
target datalayout = "e-m:e-p270:32:32-p271:32:32-p272:64:64-i64:64-f80:128-n8:16:32:64-S128"
target triple = "x86_64-pc-linux-gnu"

@.str = private unnamed_addr constant [3 x i8] c"%d\00", align 1
@.str.1 = private unnamed_addr constant [7 x i8] c"%d %d\0A\00", align 1

; Function Attrs: nofree nounwind sspstrong uwtable
define dso_local void @main() local_unnamed_addr #0 {
  %1 = alloca i32, align 4
  %2 = bitcast i32* %1 to i8*
  call void @llvm.lifetime.start.p0i8(i64 4, i8* nonnull %2) #4
  %3 = call i32 (i8*, ...) @__isoc99_scanf(i8* getelementptr inbounds ([3 x i8], [3 x i8]* @.str, i64 0, i64 0), i32* nonnull %1)
  %4 = load i32, i32* %1, align 4, !tbaa !5
  %5 = icmp slt i32 %4, 6
  br i1 %5, label %40, label %6

6:                                                ; preds = %0, %35
  %7 = phi i32 [ %36, %35 ], [ 3, %0 ]
  %8 = sitofp i32 %7 to double
  %9 = call double @sqrt(double %8) #4
  %10 = fptosi double %9 to i32
  %11 = icmp slt i32 %10, 3
  br i1 %11, label %19, label %14

12:                                               ; preds = %14
  %13 = icmp sgt i32 %18, %10
  br i1 %13, label %19, label %14, !llvm.loop !9

14:                                               ; preds = %6, %12
  %15 = phi i32 [ %18, %12 ], [ 3, %6 ]
  %16 = urem i32 %7, %15
  %17 = icmp eq i32 %16, 0
  %18 = add nuw nsw i32 %15, 2
  br i1 %17, label %35, label %12

19:                                               ; preds = %12, %6
  %20 = load i32, i32* %1, align 4, !tbaa !5
  %21 = sub nsw i32 %20, %7
  %22 = sitofp i32 %21 to double
  %23 = call double @sqrt(double %22) #4
  %24 = fptosi double %23 to i32
  %25 = icmp slt i32 %24, 3
  br i1 %25, label %33, label %28

26:                                               ; preds = %28
  %27 = icmp sgt i32 %32, %24
  br i1 %27, label %33, label %28, !llvm.loop !11

28:                                               ; preds = %19, %26
  %29 = phi i32 [ %32, %26 ], [ 3, %19 ]
  %30 = srem i32 %21, %29
  %31 = icmp eq i32 %30, 0
  %32 = add nuw nsw i32 %29, 2
  br i1 %31, label %35, label %26

33:                                               ; preds = %26, %19
  %34 = call i32 (i8*, ...) @printf(i8* nonnull dereferenceable(1) getelementptr inbounds ([7 x i8], [7 x i8]* @.str.1, i64 0, i64 0), i32 %7, i32 %21)
  br label %35

35:                                               ; preds = %14, %28, %33
  %36 = add nuw nsw i32 %7, 2
  %37 = load i32, i32* %1, align 4, !tbaa !5
  %38 = sdiv i32 %37, 2
  %39 = icmp sgt i32 %36, %38
  br i1 %39, label %40, label %6, !llvm.loop !12

40:                                               ; preds = %35, %0
  call void @llvm.lifetime.end.p0i8(i64 4, i8* nonnull %2) #4
  ret void
}

; Function Attrs: argmemonly mustprogress nofree nosync nounwind willreturn
declare void @llvm.lifetime.start.p0i8(i64 immarg, i8* nocapture) #1

; Function Attrs: nofree nounwind
declare noundef i32 @__isoc99_scanf(i8* nocapture noundef readonly, ...) local_unnamed_addr #2

; Function Attrs: mustprogress nofree nounwind willreturn
declare double @sqrt(double) local_unnamed_addr #3

; Function Attrs: nofree nounwind
declare noundef i32 @printf(i8* nocapture noundef readonly, ...) local_unnamed_addr #2

; Function Attrs: argmemonly mustprogress nofree nosync nounwind willreturn
declare void @llvm.lifetime.end.p0i8(i64 immarg, i8* nocapture) #1


!llvm.module.flags = !{!0, !1, !2, !3}
!llvm.ident = !{!4}

!0 = !{i32 1, !"wchar_size", i32 4}
!1 = !{i32 7, !"PIC Level", i32 2}
!2 = !{i32 7, !"PIE Level", i32 2}
!3 = !{i32 7, !"uwtable", i32 1}
!4 = !{!"clang version 13.0.0"}
!5 = !{!6, !6, i64 0}
!6 = !{!"int", !7, i64 0}
!7 = !{!"omnipotent char", !8, i64 0}
!8 = !{!"Simple C/C++ TBAA"}
!9 = distinct !{!9, !10}
!10 = !{!"llvm.loop.mustprogress"}
!11 = distinct !{!11, !10}
!12 = distinct !{!12, !10}
